; Function Attrs: nofree norecurse nosync nounwind memory(readwrite, inaccessiblemem: none) uwtable
define internal void @SDL_Blit_ABGR8888_ABGR8888_Modulate(ptr noundef captures(none) %0) #0 {
  %2 = getelementptr inbounds nuw i8, ptr %0, i64 112
  %3 = load i32, ptr %2, align 8
  %4 = getelementptr inbounds nuw i8, ptr %0, i64 120
  %5 = load i8, ptr %4, align 8
  %6 = zext i8 %5 to i32
  %7 = getelementptr inbounds nuw i8, ptr %0, i64 121
  %8 = load i8, ptr %7, align 1
  %9 = zext i8 %8 to i32
  %10 = getelementptr inbounds nuw i8, ptr %0, i64 122
  %11 = load i8, ptr %10, align 2
  %12 = zext i8 %11 to i32
  %13 = getelementptr inbounds nuw i8, ptr %0, i64 123
  %14 = load i8, ptr %13, align 1
  %15 = zext i8 %14 to i32
  %16 = getelementptr inbounds nuw i8, ptr %0, i64 52
  %17 = load i32, ptr %16, align 4
  %18 = add nsw i32 %17, -1
  store i32 %18, ptr %16, align 4
  %.not64 = icmp eq i32 %17, 0
  br i1 %.not64, label %._crit_edge67, label %.lr.ph66

.lr.ph66:                                         ; preds = %1
  %19 = getelementptr inbounds nuw i8, ptr %0, i64 8
  %20 = getelementptr inbounds nuw i8, ptr %0, i64 40
  %21 = getelementptr inbounds nuw i8, ptr %0, i64 48
  %22 = and i32 %3, 1
  %.not59 = icmp eq i32 %22, 0
  %23 = and i32 %3, 2
  %.not60 = icmp eq i32 %23, 0
  %24 = getelementptr inbounds nuw i8, ptr %0, i64 24
  %25 = getelementptr inbounds nuw i8, ptr %0, i64 56
  %26 = load i32, ptr %21, align 8
  %27 = icmp eq i32 %26, 0
  br i1 %27, label %.lr.ph66.split.us, label %.lr.ph66.split.preheader

.lr.ph66.split.preheader:                         ; preds = %.lr.ph66
  %.pre = load ptr, ptr %19, align 8
  %.pre77 = load ptr, ptr %20, align 8
  br label %.lr.ph66.split

.lr.ph66.split.us:                                ; preds = %.lr.ph66
  %28 = load i32, ptr %24, align 8
  %29 = sext i32 %28 to i64
  %30 = load i32, ptr %25, align 8
  %31 = sext i32 %30 to i64
  %.promoted = load ptr, ptr %19, align 8
  %.promoted68 = load ptr, ptr %20, align 8
  %32 = zext i32 %17 to i64
  %33 = mul nsw i64 %32, %29
  %scevgep = getelementptr i8, ptr %.promoted, i64 %33
  %34 = mul nsw i64 %32, %31
  %scevgep76 = getelementptr i8, ptr %.promoted68, i64 %34
  store ptr %scevgep, ptr %19, align 8
  store ptr %scevgep76, ptr %20, align 8
  store i32 -1, ptr %16, align 4
  br label %._crit_edge67

.lr.ph66.splitthread-pre-split:                   ; preds = %._crit_edge
  %.pr = load i32, ptr %21, align 8
  br label %.lr.ph66.split

.lr.ph66.split:                                   ; preds = %.lr.ph66.splitthread-pre-split, %.lr.ph66.split.preheader
  %35 = phi i32 [ %.pr, %.lr.ph66.splitthread-pre-split ], [ %26, %.lr.ph66.split.preheader ]
  %36 = phi ptr [ %108, %.lr.ph66.splitthread-pre-split ], [ %.pre77, %.lr.ph66.split.preheader ]
  %37 = phi ptr [ %104, %.lr.ph66.splitthread-pre-split ], [ %.pre, %.lr.ph66.split.preheader ]
  %38 = add nsw i32 %35, -1
  %.not5861 = icmp eq i32 %35, 0
  br i1 %.not5861, label %._crit_edge, label %.lr.ph

.lr.ph:                                           ; preds = %.lr.ph66.split
  br i1 %.not59, label %.lr.ph.split.us, label %.lr.ph.split

.lr.ph.split.us:                                  ; preds = %.lr.ph
  br i1 %.not60, label %.lr.ph.split.us.split.us, label %.lr.ph.split.us.split

.lr.ph.split.us.split.us:                         ; preds = %.lr.ph.split.us, %.lr.ph.split.us.split.us
  %39 = phi i32 [ %43, %.lr.ph.split.us.split.us ], [ %38, %.lr.ph.split.us ]
  %.05563.us.us = phi ptr [ %42, %.lr.ph.split.us.split.us ], [ %36, %.lr.ph.split.us ]
  %.05662.us.us = phi ptr [ %41, %.lr.ph.split.us.split.us ], [ %37, %.lr.ph.split.us ]
  %40 = load i32, ptr %.05662.us.us, align 4
  store i32 %40, ptr %.05563.us.us, align 4
  %41 = getelementptr inbounds nuw i8, ptr %.05662.us.us, i64 4
  %42 = getelementptr inbounds nuw i8, ptr %.05563.us.us, i64 4
  %43 = add nsw i32 %39, -1
  %.not58.us.us = icmp eq i32 %39, 0
  br i1 %.not58.us.us, label %._crit_edge, label %.lr.ph.split.us.split.us, !llvm.loop !277

.lr.ph.split.us.split:                            ; preds = %.lr.ph.split.us, %.lr.ph.split.us.split
  %44 = phi i32 [ %58, %.lr.ph.split.us.split ], [ %38, %.lr.ph.split.us ]
  %.05563.us = phi ptr [ %57, %.lr.ph.split.us.split ], [ %36, %.lr.ph.split.us ]
  %.05662.us = phi ptr [ %56, %.lr.ph.split.us.split ], [ %37, %.lr.ph.split.us ]
  %45 = load i32, ptr %.05662.us, align 4
  %46 = lshr i32 %45, 24
  %47 = mul nuw nsw i32 %46, %15
  %48 = add nuw nsw i32 %47, 1
  %49 = lshr i32 %48, 8
  %50 = and i32 %49, 255
  %51 = add nuw nsw i32 %50, %48
  %52 = shl nuw i32 %51, 16
  %53 = and i32 %52, -16777216
  %54 = and i32 %45, 16777215
  %55 = or disjoint i32 %53, %54
  store i32 %55, ptr %.05563.us, align 4
  %56 = getelementptr inbounds nuw i8, ptr %.05662.us, i64 4
  %57 = getelementptr inbounds nuw i8, ptr %.05563.us, i64 4
  %58 = add nsw i32 %44, -1
  %.not58.us = icmp eq i32 %44, 0
  br i1 %.not58.us, label %._crit_edge, label %.lr.ph.split.us.split, !llvm.loop !277

.lr.ph.split:                                     ; preds = %.lr.ph, %90
  %59 = phi i32 [ %100, %90 ], [ %38, %.lr.ph ]
  %.05563 = phi ptr [ %99, %90 ], [ %36, %.lr.ph ]
  %.05662 = phi ptr [ %98, %90 ], [ %37, %.lr.ph ]
  %60 = load i32, ptr %.05662, align 4
  %61 = lshr i32 %60, 16
  %62 = and i32 %61, 255
  %63 = lshr i32 %60, 8
  %64 = and i32 %63, 255
  %65 = and i32 %60, 255
  %66 = lshr i32 %60, 24
  %67 = mul nuw nsw i32 %65, %6
  %68 = add nuw nsw i32 %67, 1
  %69 = lshr i32 %68, 8
  %70 = and i32 %69, 255
  %71 = add nuw nsw i32 %70, %68
  %72 = lshr i32 %71, 8
  %73 = and i32 %72, 255
  %74 = mul nuw nsw i32 %64, %9
  %75 = add nuw nsw i32 %74, 1
  %76 = lshr i32 %75, 8
  %77 = and i32 %76, 255
  %78 = add nuw nsw i32 %77, %75
  %79 = and i32 %78, 65280
  %80 = mul nuw nsw i32 %62, %12
  %81 = add nuw nsw i32 %80, 1
  br i1 %.not60, label %90, label %82

82:                                               ; preds = %.lr.ph.split
  %83 = mul nuw nsw i32 %66, %15
  %84 = add nuw nsw i32 %83, 1
  %85 = lshr i32 %84, 8
  %86 = and i32 %85, 255
  %87 = add nuw nsw i32 %86, %84
  %88 = lshr i32 %87, 8
  %89 = and i32 %88, 255
  br label %90

90:                                               ; preds = %82, %.lr.ph.split
  %.057 = phi i32 [ %89, %82 ], [ %66, %.lr.ph.split ]
  %91 = shl nuw i32 %.057, 24
  %92 = shl nuw nsw i32 %81, 8
  %.mask = and i32 %81, 65280
  %93 = add nuw nsw i32 %.mask, %92
  %94 = and i32 %93, 16711680
  %95 = or disjoint i32 %91, %94
  %96 = or disjoint i32 %95, %79
  %97 = or disjoint i32 %96, %73
  store i32 %97, ptr %.05563, align 4
  %98 = getelementptr inbounds nuw i8, ptr %.05662, i64 4
  %99 = getelementptr inbounds nuw i8, ptr %.05563, i64 4
  %100 = add nsw i32 %59, -1
  %.not58 = icmp eq i32 %59, 0
  br i1 %.not58, label %._crit_edge, label %.lr.ph.split, !llvm.loop !277

._crit_edge:                                      ; preds = %90, %.lr.ph.split.us.split, %.lr.ph.split.us.split.us, %.lr.ph66.split
  %101 = load i32, ptr %24, align 8
  %102 = load ptr, ptr %19, align 8
  %103 = sext i32 %101 to i64
  %104 = getelementptr inbounds i8, ptr %102, i64 %103
  store ptr %104, ptr %19, align 8
  %105 = load i32, ptr %25, align 8
  %106 = load ptr, ptr %20, align 8
  %107 = sext i32 %105 to i64
  %108 = getelementptr inbounds i8, ptr %106, i64 %107
  store ptr %108, ptr %20, align 8
  %109 = load i32, ptr %16, align 4
  %110 = add nsw i32 %109, -1
  store i32 %110, ptr %16, align 4
  %.not = icmp eq i32 %109, 0
  br i1 %.not, label %._crit_edge67, label %.lr.ph66.splitthread-pre-split, !llvm.loop !278

._crit_edge67:                                    ; preds = %._crit_edge, %.lr.ph66.split.us, %1
  ret void
}